target datalayout = "e-m:e-p270:32:32-p271:32:32-p272:64:64-i64:64-i128:128-f80:128-n8:16:32:64-S128"
target triple = "x86_64-pc-linux-gnu"

@hf_mpeg_descr_avc_vid_profile_idc = internal global i32 0, align 4
@hf_mpeg_descr_avc_vid_constraint_set0_flag = internal global i32 0, align 4
@hf_mpeg_descr_avc_vid_constraint_set1_flag = internal global i32 0, align 4
@hf_mpeg_descr_avc_vid_constraint_set2_flag = internal global i32 0, align 4
@hf_mpeg_descr_avc_vid_compatible_flags = internal global i32 0, align 4
@hf_mpeg_descr_avc_vid_level_idc = internal global i32 0, align 4
@hf_mpeg_descr_avc_vid_still_present = internal global i32 0, align 4
@hf_mpeg_descr_avc_vid_24h_picture_flag = internal global i32 0, align 4
@hf_mpeg_descr_avc_vid_reserved = internal global i32 0, align 4

; Function Attrs: null_pointer_is_valid sspstrong uwtable
define internal void @proto_mpeg_descriptor_dissect_avc_vid(ptr noundef %0, i32 noundef %1, ptr noundef %2) #1 {
  %4 = alloca ptr, align 8
  %5 = alloca i32, align 4
  %6 = alloca ptr, align 8
  store ptr %0, ptr %4, align 8
  store i32 %1, ptr %5, align 4
  store ptr %2, ptr %6, align 8
  %7 = load ptr, ptr %6, align 8
  %8 = load i32, ptr @hf_mpeg_descr_avc_vid_profile_idc, align 4
  %9 = load ptr, ptr %4, align 8
  %10 = load i32, ptr %5, align 4
  %11 = call ptr @proto_tree_add_item(ptr noundef %7, i32 noundef %8, ptr noundef %9, i32 noundef %10, i32 noundef 1, i32 noundef 0)
  %12 = load i32, ptr %5, align 4
  %13 = add i32 %12, 1
  store i32 %13, ptr %5, align 4
  %14 = load ptr, ptr %6, align 8
  %15 = load i32, ptr @hf_mpeg_descr_avc_vid_constraint_set0_flag, align 4
  %16 = load ptr, ptr %4, align 8
  %17 = load i32, ptr %5, align 4
  %18 = call ptr @proto_tree_add_item(ptr noundef %14, i32 noundef %15, ptr noundef %16, i32 noundef %17, i32 noundef 1, i32 noundef 0)
  %19 = load ptr, ptr %6, align 8
  %20 = load i32, ptr @hf_mpeg_descr_avc_vid_constraint_set1_flag, align 4
  %21 = load ptr, ptr %4, align 8
  %22 = load i32, ptr %5, align 4
  %23 = call ptr @proto_tree_add_item(ptr noundef %19, i32 noundef %20, ptr noundef %21, i32 noundef %22, i32 noundef 1, i32 noundef 0)
  %24 = load ptr, ptr %6, align 8
  %25 = load i32, ptr @hf_mpeg_descr_avc_vid_constraint_set2_flag, align 4
  %26 = load ptr, ptr %4, align 8
  %27 = load i32, ptr %5, align 4
  %28 = call ptr @proto_tree_add_item(ptr noundef %24, i32 noundef %25, ptr noundef %26, i32 noundef %27, i32 noundef 1, i32 noundef 0)
  %29 = load ptr, ptr %6, align 8
  %30 = load i32, ptr @hf_mpeg_descr_avc_vid_compatible_flags, align 4
  %31 = load ptr, ptr %4, align 8
  %32 = load i32, ptr %5, align 4
  %33 = call ptr @proto_tree_add_item(ptr noundef %29, i32 noundef %30, ptr noundef %31, i32 noundef %32, i32 noundef 1, i32 noundef 0)
  %34 = load i32, ptr %5, align 4
  %35 = add i32 %34, 1
  store i32 %35, ptr %5, align 4
  %36 = load ptr, ptr %6, align 8
  %37 = load i32, ptr @hf_mpeg_descr_avc_vid_level_idc, align 4
  %38 = load ptr, ptr %4, align 8
  %39 = load i32, ptr %5, align 4
  %40 = call ptr @proto_tree_add_item(ptr noundef %36, i32 noundef %37, ptr noundef %38, i32 noundef %39, i32 noundef 1, i32 noundef 0)
  %41 = load i32, ptr %5, align 4
  %42 = add i32 %41, 1
  store i32 %42, ptr %5, align 4
  %43 = load ptr, ptr %6, align 8
  %44 = load i32, ptr @hf_mpeg_descr_avc_vid_still_present, align 4
  %45 = load ptr, ptr %4, align 8
  %46 = load i32, ptr %5, align 4
  %47 = call ptr @proto_tree_add_item(ptr noundef %43, i32 noundef %44, ptr noundef %45, i32 noundef %46, i32 noundef 1, i32 noundef 0)
  %48 = load ptr, ptr %6, align 8
  %49 = load i32, ptr @hf_mpeg_descr_avc_vid_24h_picture_flag, align 4
  %50 = load ptr, ptr %4, align 8
  %51 = load i32, ptr %5, align 4
  %52 = call ptr @proto_tree_add_item(ptr noundef %48, i32 noundef %49, ptr noundef %50, i32 noundef %51, i32 noundef 1, i32 noundef 0)
  %53 = load ptr, ptr %6, align 8
  %54 = load i32, ptr @hf_mpeg_descr_avc_vid_reserved, align 4
  %55 = load ptr, ptr %4, align 8
  %56 = load i32, ptr %5, align 4
  %57 = call ptr @proto_tree_add_item(ptr noundef %53, i32 noundef %54, ptr noundef %55, i32 noundef %56, i32 noundef 1, i32 noundef 0)
  ret void
}