; Function Attrs: null_pointer_is_valid sspstrong uwtable
define internal fastcc void @proto_mpeg_descriptor_dissect_avc_vid(ptr noundef %0, i32 noundef %1, ptr noundef %2) unnamed_addr #1 {
  %4 = load i32, ptr @hf_mpeg_descr_avc_vid_profile_idc, align 4
  %5 = tail call ptr @proto_tree_add_item(ptr noundef %2, i32 noundef %4, ptr noundef %0, i32 noundef %1, i32 noundef 1, i32 noundef 0)
  %6 = add i32 %1, 1
  %7 = load i32, ptr @hf_mpeg_descr_avc_vid_constraint_set0_flag, align 4
  %8 = tail call ptr @proto_tree_add_item(ptr noundef %2, i32 noundef %7, ptr noundef %0, i32 noundef %6, i32 noundef 1, i32 noundef 0)
  %9 = load i32, ptr @hf_mpeg_descr_avc_vid_constraint_set1_flag, align 4
  %10 = tail call ptr @proto_tree_add_item(ptr noundef %2, i32 noundef %9, ptr noundef %0, i32 noundef %6, i32 noundef 1, i32 noundef 0)
  %11 = load i32, ptr @hf_mpeg_descr_avc_vid_constraint_set2_flag, align 4
  %12 = tail call ptr @proto_tree_add_item(ptr noundef %2, i32 noundef %11, ptr noundef %0, i32 noundef %6, i32 noundef 1, i32 noundef 0)
  %13 = load i32, ptr @hf_mpeg_descr_avc_vid_compatible_flags, align 4
  %14 = tail call ptr @proto_tree_add_item(ptr noundef %2, i32 noundef %13, ptr noundef %0, i32 noundef %6, i32 noundef 1, i32 noundef 0)
  %15 = add i32 %1, 2
  %16 = load i32, ptr @hf_mpeg_descr_avc_vid_level_idc, align 4
  %17 = tail call ptr @proto_tree_add_item(ptr noundef %2, i32 noundef %16, ptr noundef %0, i32 noundef %15, i32 noundef 1, i32 noundef 0)
  %18 = add i32 %1, 3
  %19 = load i32, ptr @hf_mpeg_descr_avc_vid_still_present, align 4
  %20 = tail call ptr @proto_tree_add_item(ptr noundef %2, i32 noundef %19, ptr noundef %0, i32 noundef %18, i32 noundef 1, i32 noundef 0)
  %21 = load i32, ptr @hf_mpeg_descr_avc_vid_24h_picture_flag, align 4
  %22 = tail call ptr @proto_tree_add_item(ptr noundef %2, i32 noundef %21, ptr noundef %0, i32 noundef %18, i32 noundef 1, i32 noundef 0)
  %23 = load i32, ptr @hf_mpeg_descr_avc_vid_reserved, align 4
  %24 = tail call ptr @proto_tree_add_item(ptr noundef %2, i32 noundef %23, ptr noundef %0, i32 noundef %18, i32 noundef 1, i32 noundef 0)
  ret void
}